; Function Attrs: mustprogress nounwind uwtable
define dso_local { ptr, i64 } @_ZNK5clang14IdentifierInfo14deuglifiedNameEv(ptr nocapture noundef nonnull readonly align 8 dereferenceable(24) %0) local_unnamed_addr #3 align 2 {
  %2 = alloca %"class.llvm::StringRef", align 8
  %3 = getelementptr inbounds nuw i8, ptr %0, i64 16
  %4 = load ptr, ptr %3, align 8
  %5 = getelementptr inbounds i8, ptr %4, i64 16
  %6 = load i64, ptr %4, align 8
  %7 = and i64 %6, 4294967295
  store ptr %5, ptr %2, align 8
  %8 = getelementptr inbounds nuw i8, ptr %2, i64 8
  store i64 %7, ptr %8, align 8
  %9 = icmp ugt i64 %7, 1
  br i1 %9, label %10, label %24

10:                                               ; preds = %1
  %11 = load i8, ptr %5, align 1
  %12 = icmp eq i8 %11, 95
  br i1 %12, label %13, label %24

13:                                               ; preds = %10
  %14 = getelementptr inbounds i8, ptr %4, i64 17
  %15 = load i8, ptr %14, align 1
  %16 = icmp eq i8 %15, 95
  %17 = add i8 %15, -65
  %or.cond = icmp ult i8 %17, 26
  %or.cond1 = or i1 %16, %or.cond
  br i1 %or.cond1, label %18, label %24

18:                                               ; preds = %13
  %19 = call noundef i64 @_ZNK4llvm9StringRef17find_first_not_ofEcm(ptr noundef nonnull align 8 dereferenceable(16) %2, i8 noundef signext 95, i64 noundef 0) #26
  %20 = load i64, ptr %8, align 8
  %.sroa.speculated.i = call i64 @llvm.umin.i64(i64 %19, i64 %20)
  %21 = load ptr, ptr %2, align 8
  %22 = getelementptr inbounds i8, ptr %21, i64 %.sroa.speculated.i
  %23 = sub i64 %20, %.sroa.speculated.i
  br label %24

24:                                               ; preds = %13, %1, %10, %18
  %.sroa.0.0 = phi ptr [ %22, %18 ], [ %5, %10 ], [ %5, %1 ], [ %5, %13 ]
  %.sroa.3.0 = phi i64 [ %23, %18 ], [ %7, %10 ], [ %7, %1 ], [ %7, %13 ]
  %.fca.0.insert = insertvalue { ptr, i64 } poison, ptr %.sroa.0.0, 0
  %.fca.1.insert = insertvalue { ptr, i64 } %.fca.0.insert, i64 %.sroa.3.0, 1
  ret { ptr, i64 } %.fca.1.insert
}